(dp0
S'username'
p1
csip
_unpickle_type
p2
(S'PyQt4.QtCore'
p3
S'QString'
p4
(Vadmin
p5
tp6
tp7
Rp8
sS'password'
p9
g2
(g3
S'QString'
p10
(Vveraka1985
p11
tp12
tp13
Rp14
sS'server'
p15
g2
(g3
S'QString'
p16
(Vhttp://balitechy.com/xmlrpc.php
p17
tp18
tp19
Rp20
s.